target datalayout = "e-m:e-p270:32:32-p271:32:32-p272:64:64-i64:64-i128:128-f80:128-n8:16:32:64-S128"
target triple = "x86_64-pc-linux-gnu"

%struct.SDL_Touch = type { i64, i32, i32, i32, ptr, ptr }

@SDL_num_touch = internal global i32 0, align 4
@SDL_touchDevices = internal global ptr null, align 8

; Function Attrs: nounwind uwtable
define internal i32 @SDL_GetTouchIndex(i64 noundef %0) #0 {
  %2 = alloca i32, align 4
  %3 = alloca i64, align 8
  %4 = alloca i32, align 4
  %5 = alloca ptr, align 8
  %6 = alloca i32, align 4
  store i64 %0, ptr %3, align 8
  call void @llvm.lifetime.start.p0(i64 4, ptr %4) #5
  call void @llvm.lifetime.start.p0(i64 8, ptr %5) #5
  store i32 0, ptr %4, align 4
  br label %7

7:                                                ; preds = %25, %1
  %8 = load i32, ptr %4, align 4
  %9 = load i32, ptr @SDL_num_touch, align 4
  %10 = icmp slt i32 %8, %9
  br i1 %10, label %11, label %28

11:                                               ; preds = %7
  %12 = load ptr, ptr @SDL_touchDevices, align 8
  %13 = load i32, ptr %4, align 4
  %14 = sext i32 %13 to i64
  %15 = getelementptr inbounds ptr, ptr %12, i64 %14
  %16 = load ptr, ptr %15, align 8
  store ptr %16, ptr %5, align 8
  %17 = load ptr, ptr %5, align 8
  %18 = getelementptr inbounds nuw %struct.SDL_Touch, ptr %17, i32 0, i32 0
  %19 = load i64, ptr %18, align 8
  %20 = load i64, ptr %3, align 8
  %21 = icmp eq i64 %19, %20
  br i1 %21, label %22, label %24

22:                                               ; preds = %11
  %23 = load i32, ptr %4, align 4
  store i32 %23, ptr %2, align 4
  store i32 1, ptr %6, align 4
  br label %29

24:                                               ; preds = %11
  br label %25

25:                                               ; preds = %24
  %26 = load i32, ptr %4, align 4
  %27 = add nsw i32 %26, 1
  store i32 %27, ptr %4, align 4
  br label %7, !llvm.loop !5

28:                                               ; preds = %7
  store i32 -1, ptr %2, align 4
  store i32 1, ptr %6, align 4
  br label %29

29:                                               ; preds = %28, %22
  call void @llvm.lifetime.end.p0(i64 8, ptr %5) #5
  call void @llvm.lifetime.end.p0(i64 4, ptr %4) #5
  %30 = load i32, ptr %2, align 4
  ret i32 %30
}

; Function Attrs: nounwind uwtable
define hidden void @SDL_DelTouch(i64 noundef %0) #0 {
  %2 = alloca i64, align 8
  %3 = alloca i32, align 4
  %4 = alloca i32, align 4
  %5 = alloca ptr, align 8
  %6 = alloca i32, align 4
  store i64 %0, ptr %2, align 8
  call void @llvm.lifetime.start.p0(i64 4, ptr %3) #5
  call void @llvm.lifetime.start.p0(i64 4, ptr %4) #5
  call void @llvm.lifetime.start.p0(i64 8, ptr %5) #5
  %7 = load i32, ptr @SDL_num_touch, align 4
  %8 = icmp eq i32 %7, 0
  br i1 %8, label %9, label %10

9:                                                ; preds = %1
  store i32 1, ptr %6, align 4
  br label %55

10:                                               ; preds = %1
  %11 = load i64, ptr %2, align 8
  %12 = call i32 @SDL_GetTouchIndex(i64 noundef %11)
  store i32 %12, ptr %4, align 4
  %13 = load i64, ptr %2, align 8
  %14 = call ptr @SDL_GetTouch(i64 noundef %13)
  store ptr %14, ptr %5, align 8
  %15 = load ptr, ptr %5, align 8
  %16 = icmp ne ptr %15, null
  br i1 %16, label %18, label %17

17:                                               ; preds = %10
  store i32 1, ptr %6, align 4
  br label %55

18:                                               ; preds = %10
  store i32 0, ptr %3, align 4
  br label %19

19:                                               ; preds = %33, %18
  %20 = load i32, ptr %3, align 4
  %21 = load ptr, ptr %5, align 8
  %22 = getelementptr inbounds nuw %struct.SDL_Touch, ptr %21, i32 0, i32 3
  %23 = load i32, ptr %22, align 8
  %24 = icmp slt i32 %20, %23
  br i1 %24, label %25, label %36

25:                                               ; preds = %19
  %26 = load ptr, ptr %5, align 8
  %27 = getelementptr inbounds nuw %struct.SDL_Touch, ptr %26, i32 0, i32 4
  %28 = load ptr, ptr %27, align 8
  %29 = load i32, ptr %3, align 4
  %30 = sext i32 %29 to i64
  %31 = getelementptr inbounds ptr, ptr %28, i64 %30
  %32 = load ptr, ptr %31, align 8
  call void @SDL_free_REAL(ptr noundef %32)
  br label %33

33:                                               ; preds = %25
  %34 = load i32, ptr %3, align 4
  %35 = add nsw i32 %34, 1
  store i32 %35, ptr %3, align 4
  br label %19, !llvm.loop !9

36:                                               ; preds = %19
  %37 = load ptr, ptr %5, align 8
  %38 = getelementptr inbounds nuw %struct.SDL_Touch, ptr %37, i32 0, i32 4
  %39 = load ptr, ptr %38, align 8
  call void @SDL_free_REAL(ptr noundef %39)
  %40 = load ptr, ptr %5, align 8
  %41 = getelementptr inbounds nuw %struct.SDL_Touch, ptr %40, i32 0, i32 5
  %42 = load ptr, ptr %41, align 8
  call void @SDL_free_REAL(ptr noundef %42)
  %43 = load ptr, ptr %5, align 8
  call void @SDL_free_REAL(ptr noundef %43)
  %44 = load i32, ptr @SDL_num_touch, align 4
  %45 = add nsw i32 %44, -1
  store i32 %45, ptr @SDL_num_touch, align 4
  %46 = load ptr, ptr @SDL_touchDevices, align 8
  %47 = load i32, ptr @SDL_num_touch, align 4
  %48 = sext i32 %47 to i64
  %49 = getelementptr inbounds ptr, ptr %46, i64 %48
  %50 = load ptr, ptr %49, align 8
  %51 = load ptr, ptr @SDL_touchDevices, align 8
  %52 = load i32, ptr %4, align 4
  %53 = sext i32 %52 to i64
  %54 = getelementptr inbounds ptr, ptr %51, i64 %53
  store ptr %50, ptr %54, align 8
  store i32 0, ptr %6, align 4
  br label %55

55:                                               ; preds = %36, %17, %9
  call void @llvm.lifetime.end.p0(i64 8, ptr %5) #5
  call void @llvm.lifetime.end.p0(i64 4, ptr %4) #5
  call void @llvm.lifetime.end.p0(i64 4, ptr %3) #5
  %56 = load i32, ptr %6, align 4
  switch i32 %56, label %58 [
    i32 0, label %57
    i32 1, label %57
  ]

57:                                               ; preds = %55, %55
  ret void

58:                                               ; preds = %55
  unreachable
}