; Function Attrs: nounwind uwtable
define hidden void @SDL_DelTouch(i64 noundef %0) local_unnamed_addr #2 {
  %2 = load i32, ptr @SDL_num_touch, align 4
  %3 = icmp eq i32 %2, 0
  br i1 %3, label %37, label %4

4:                                                ; preds = %1
  %5 = icmp sgt i32 %2, 0
  br i1 %5, label %.lr.ph.i, label %SDL_GetTouchIndex.exit

.lr.ph.i:                                         ; preds = %4
  %6 = load ptr, ptr @SDL_touchDevices, align 8
  %wide.trip.count.i = zext nneg i32 %2 to i64
  br label %7

7:                                                ; preds = %12, %.lr.ph.i
  %indvars.iv.i = phi i64 [ 0, %.lr.ph.i ], [ %indvars.iv.next.i, %12 ]
  %8 = getelementptr inbounds nuw ptr, ptr %6, i64 %indvars.iv.i
  %9 = load ptr, ptr %8, align 8
  %10 = load i64, ptr %9, align 8
  %11 = icmp eq i64 %10, %0
  br i1 %11, label %._crit_edge.loopexit.split.loop.exit11.i, label %12

12:                                               ; preds = %7
  %indvars.iv.next.i = add nuw nsw i64 %indvars.iv.i, 1
  %exitcond.not.i = icmp eq i64 %indvars.iv.next.i, %wide.trip.count.i
  br i1 %exitcond.not.i, label %SDL_GetTouchIndex.exit, label %7, !llvm.loop !5

._crit_edge.loopexit.split.loop.exit11.i:         ; preds = %7
  %sext = shl i64 %indvars.iv.i, 32
  %13 = ashr exact i64 %sext, 32
  br label %SDL_GetTouchIndex.exit

SDL_GetTouchIndex.exit:                           ; preds = %12, %4, %._crit_edge.loopexit.split.loop.exit11.i
  %.0.i = phi i64 [ -1, %4 ], [ %13, %._crit_edge.loopexit.split.loop.exit11.i ], [ -1, %12 ]
  %14 = tail call ptr @SDL_GetTouch(i64 noundef %0)
  %.not = icmp eq ptr %14, null
  br i1 %.not, label %37, label %.preheader

.preheader:                                       ; preds = %SDL_GetTouchIndex.exit
  %15 = getelementptr inbounds nuw i8, ptr %14, i64 16
  %16 = load i32, ptr %15, align 8
  %17 = icmp sgt i32 %16, 0
  br i1 %17, label %.lr.ph, label %._crit_edge

.lr.ph:                                           ; preds = %.preheader
  %18 = getelementptr inbounds nuw i8, ptr %14, i64 24
  br label %19

19:                                               ; preds = %.lr.ph, %19
  %indvars.iv = phi i64 [ 0, %.lr.ph ], [ %indvars.iv.next, %19 ]
  %20 = load ptr, ptr %18, align 8
  %21 = getelementptr inbounds nuw ptr, ptr %20, i64 %indvars.iv
  %22 = load ptr, ptr %21, align 8
  tail call void @SDL_free_REAL(ptr noundef %22) #7
  %indvars.iv.next = add nuw nsw i64 %indvars.iv, 1
  %23 = load i32, ptr %15, align 8
  %24 = sext i32 %23 to i64
  %25 = icmp slt i64 %indvars.iv.next, %24
  br i1 %25, label %19, label %._crit_edge, !llvm.loop !10

._crit_edge:                                      ; preds = %19, %.preheader
  %26 = getelementptr inbounds nuw i8, ptr %14, i64 24
  %27 = load ptr, ptr %26, align 8
  tail call void @SDL_free_REAL(ptr noundef %27) #7
  %28 = getelementptr inbounds nuw i8, ptr %14, i64 32
  %29 = load ptr, ptr %28, align 8
  tail call void @SDL_free_REAL(ptr noundef %29) #7
  tail call void @SDL_free_REAL(ptr noundef nonnull %14) #7
  %30 = load i32, ptr @SDL_num_touch, align 4
  %31 = add nsw i32 %30, -1
  store i32 %31, ptr @SDL_num_touch, align 4
  %32 = load ptr, ptr @SDL_touchDevices, align 8
  %33 = sext i32 %31 to i64
  %34 = getelementptr inbounds ptr, ptr %32, i64 %33
  %35 = load ptr, ptr %34, align 8
  %36 = getelementptr inbounds ptr, ptr %32, i64 %.0.i
  store ptr %35, ptr %36, align 8
  br label %37

37:                                               ; preds = %SDL_GetTouchIndex.exit, %1, %._crit_edge
  ret void
}